target datalayout = "e-m:e-p270:32:32-p271:32:32-p272:64:64-i64:64-i128:128-f80:128-n8:16:32:64-S128"
target triple = "x86_64-pc-linux-gnu"

%class.VNRelinker = type <{ ptr, ptr, ptr, i8, [7 x i8] }>

; Function Attrs: mustprogress nounwind uwtable
define linkonce_odr dso_local void @_ZN10VNRelinkerD2Ev(ptr noundef nonnull align 8 dereferenceable(32) %0) unnamed_addr #5 comdat align 2 {
  %2 = alloca ptr, align 8
  store ptr %0, ptr %2, align 8
  br label %3

3:                                                ; preds = %1
  br label %4

4:                                                ; preds = %3
  br label %5

5:                                                ; preds = %4
  ret void
}

; Function Attrs: mustprogress uwtable
define linkonce_odr dso_local void @_ZN10VNRelinker6relinkEP7AstNode(ptr noundef nonnull align 8 dereferenceable(32) %0, ptr noundef %1) #4 comdat align 2 {
  %3 = alloca ptr, align 8
  %4 = alloca ptr, align 8
  store ptr %0, ptr %3, align 8
  store ptr %1, ptr %4, align 8
  %5 = load ptr, ptr %3, align 8
  %6 = load ptr, ptr %4, align 8
  call void @_ZN7AstNode6relinkEP10VNRelinker(ptr noundef nonnull align 8 dereferenceable(152) %6, ptr noundef %5)
  ret void
}

; Function Attrs: mustprogress nounwind uwtable
define linkonce_odr dso_local void @_ZN10VNRelinkerC2Ev(ptr noundef nonnull align 8 dereferenceable(32) %0) unnamed_addr #5 comdat align 2 {
  %2 = alloca ptr, align 8
  store ptr %0, ptr %2, align 8
  %3 = load ptr, ptr %2, align 8
  %4 = getelementptr inbounds %class.VNRelinker, ptr %3, i32 0, i32 0
  store ptr null, ptr %4, align 8
  %5 = getelementptr inbounds %class.VNRelinker, ptr %3, i32 0, i32 1
  store ptr null, ptr %5, align 8
  %6 = getelementptr inbounds %class.VNRelinker, ptr %3, i32 0, i32 2
  store ptr null, ptr %6, align 8
  %7 = getelementptr inbounds %class.VNRelinker, ptr %3, i32 0, i32 3
  store i8 0, ptr %7, align 8
  ret void
}

; Function Attrs: mustprogress uwtable
define dso_local void @_ZN7AstNode8swapWithEPS_(ptr noundef nonnull align 8 dereferenceable(152) %0, ptr noundef %1) #4 align 2 personality ptr @__gxx_personality_v0 {
  %3 = alloca ptr, align 8
  %4 = alloca ptr, align 8
  %5 = alloca %class.VNRelinker, align 8
  %6 = alloca %class.VNRelinker, align 8
  %7 = alloca ptr, align 8
  %8 = alloca i32, align 4
  store ptr %0, ptr %3, align 8
  store ptr %1, ptr %4, align 8
  %9 = load ptr, ptr %3, align 8
  call void @_ZN10VNRelinkerC2Ev(ptr noundef nonnull align 8 dereferenceable(32) %5) #3
  call void @_ZN10VNRelinkerC2Ev(ptr noundef nonnull align 8 dereferenceable(32) %6) #3
  %10 = invoke noundef ptr @_ZN7AstNode12unlinkFrBackEP10VNRelinker(ptr noundef nonnull align 8 dereferenceable(152) %9, ptr noundef %5)
          to label %11 unwind label %18

11:                                               ; preds = %2
  %12 = load ptr, ptr %4, align 8
  %13 = invoke noundef ptr @_ZN7AstNode12unlinkFrBackEP10VNRelinker(ptr noundef nonnull align 8 dereferenceable(152) %12, ptr noundef %6)
          to label %14 unwind label %18

14:                                               ; preds = %11
  %15 = load ptr, ptr %4, align 8
  invoke void @_ZN10VNRelinker6relinkEP7AstNode(ptr noundef nonnull align 8 dereferenceable(32) %5, ptr noundef %15)
          to label %16 unwind label %18

16:                                               ; preds = %14
  invoke void @_ZN10VNRelinker6relinkEP7AstNode(ptr noundef nonnull align 8 dereferenceable(32) %6, ptr noundef %9)
          to label %17 unwind label %18

17:                                               ; preds = %16
  call void @_ZN10VNRelinkerD2Ev(ptr noundef nonnull align 8 dereferenceable(32) %6) #3
  call void @_ZN10VNRelinkerD2Ev(ptr noundef nonnull align 8 dereferenceable(32) %5) #3
  ret void

18:                                               ; preds = %16, %14, %11, %2
  %19 = landingpad { ptr, i32 }
          cleanup
  %20 = extractvalue { ptr, i32 } %19, 0
  store ptr %20, ptr %7, align 8
  %21 = extractvalue { ptr, i32 } %19, 1
  store i32 %21, ptr %8, align 4
  call void @_ZN10VNRelinkerD2Ev(ptr noundef nonnull align 8 dereferenceable(32) %6) #3
  call void @_ZN10VNRelinkerD2Ev(ptr noundef nonnull align 8 dereferenceable(32) %5) #3
  br label %22

22:                                               ; preds = %18
  %23 = load ptr, ptr %7, align 8
  %24 = load i32, ptr %8, align 4
  %25 = insertvalue { ptr, i32 } poison, ptr %23, 0
  %26 = insertvalue { ptr, i32 } %25, i32 %24, 1
  resume { ptr, i32 } %26
}