; Function Attrs: mustprogress uwtable
define dso_local void @_ZN7AstNode8swapWithEPS_(ptr noundef nonnull align 8 dereferenceable(152) %0, ptr noundef %1) local_unnamed_addr #4 align 2 personality ptr @__gxx_personality_v0 {
_ZN10VNRelinker6relinkEP7AstNode.exit:
  %2 = alloca %class.VNRelinker, align 8
  %3 = alloca %class.VNRelinker, align 8
  call void @llvm.memset.p0.i64(ptr noundef nonnull align 8 dereferenceable(25) %2, i8 0, i64 25, i1 false)
  call void @llvm.memset.p0.i64(ptr noundef nonnull align 8 dereferenceable(25) %3, i8 0, i64 25, i1 false)
  %4 = call noundef ptr @_ZN7AstNode12unlinkFrBackEP10VNRelinker(ptr noundef nonnull align 8 dereferenceable(152) %0, ptr noundef nonnull %2)
  %5 = call noundef ptr @_ZN7AstNode12unlinkFrBackEP10VNRelinker(ptr noundef nonnull align 8 dereferenceable(152) %1, ptr noundef nonnull %3)
  call void @_ZN7AstNode6relinkEP10VNRelinker(ptr noundef nonnull align 8 dereferenceable(152) %1, ptr noundef nonnull %2)
  call void @_ZN7AstNode6relinkEP10VNRelinker(ptr noundef nonnull align 8 dereferenceable(152) %0, ptr noundef nonnull %3)
  ret void
}